target datalayout = "e-m:e-p270:32:32-p271:32:32-p272:64:64-i64:64-i128:128-f80:128-n8:16:32:64-S128"
target triple = "x86_64-pc-linux-gnu"

%union.pthread_mutex_t = type { %struct.__pthread_mutex_s }
%struct.__pthread_mutex_s = type { i32, i32, i32, i32, i32, i16, i16, %struct.__pthread_internal_list }
%struct.__pthread_internal_list = type { ptr, ptr }
%union.pthread_cond_t = type { %struct.__pthread_cond_s }
%struct.__pthread_cond_s = type { %union.__atomic_wide_counter, %union.__atomic_wide_counter, [2 x i32], [2 x i32], i32, i32, [2 x i32] }
%union.__atomic_wide_counter = type { i64 }
%class.PlatformParker = type { i32, i32, [1 x %union.pthread_mutex_t], [2 x %union.pthread_cond_t] }

; Function Attrs: mustprogress nounwind uwtable
define hidden void @_ZN14PlatformParkerD2Ev(ptr noundef nonnull align 8 dereferenceable(144) %0) unnamed_addr #1 align 2 {
  %2 = alloca ptr, align 8
  %3 = alloca i32, align 4
  store ptr %0, ptr %2, align 8
  %4 = load ptr, ptr %2, align 8
  %5 = getelementptr inbounds %class.PlatformParker, ptr %4, i32 0, i32 3
  %6 = getelementptr inbounds [2 x %union.pthread_cond_t], ptr %5, i64 0, i64 0
  %7 = call i32 @pthread_cond_destroy(ptr noundef %6) #7
  store i32 %7, ptr %3, align 4
  %8 = getelementptr inbounds %class.PlatformParker, ptr %4, i32 0, i32 3
  %9 = getelementptr inbounds [2 x %union.pthread_cond_t], ptr %8, i64 0, i64 1
  %10 = call i32 @pthread_cond_destroy(ptr noundef %9) #7
  store i32 %10, ptr %3, align 4
  %11 = getelementptr inbounds %class.PlatformParker, ptr %4, i32 0, i32 2
  %12 = getelementptr inbounds [1 x %union.pthread_mutex_t], ptr %11, i64 0, i64 0
  %13 = call i32 @pthread_mutex_destroy(ptr noundef %12) #7
  store i32 %13, ptr %3, align 4
  ret void
}