; Function Attrs: mustprogress nounwind uwtable
define hidden void @_ZN14PlatformParkerD2Ev(ptr noundef nonnull align 8 dereferenceable(144) %0) unnamed_addr #1 align 2 {
  %2 = getelementptr inbounds i8, ptr %0, i64 48
  %3 = tail call i32 @pthread_cond_destroy(ptr noundef nonnull %2) #25
  %4 = getelementptr inbounds i8, ptr %0, i64 96
  %5 = tail call i32 @pthread_cond_destroy(ptr noundef nonnull %4) #25
  %6 = getelementptr inbounds i8, ptr %0, i64 8
  %7 = tail call i32 @pthread_mutex_destroy(ptr noundef nonnull %6) #25
  ret void
}